; Function Attrs: mustprogress uwtable
define void @_ZNK4LIEF3ELF15NoteGnuProperty4dumpERSo(ptr noundef nonnull align 8 dereferenceable(80) %0, ptr noundef nonnull align 8 dereferenceable(8) %1) unnamed_addr #3 align 2 personality ptr @__gxx_personality_v0 {
  %3 = alloca %"class.std::vector.39", align 8
  tail call void @_ZNK4LIEF3ELF4Note4dumpERSo(ptr noundef nonnull align 8 dereferenceable(72) %0, ptr noundef nonnull align 8 dereferenceable(8) %1)
  %4 = tail call noundef nonnull align 8 dereferenceable(8) ptr @_ZStlsISt11char_traitsIcEERSt13basic_ostreamIcT_ES5_c(ptr noundef nonnull align 8 dereferenceable(8) %1, i8 noundef signext 10)
  call void @_ZNK4LIEF3ELF15NoteGnuProperty10propertiesEv(ptr dead_on_unwind nonnull writable sret(%"class.std::vector.39") align 8 %3, ptr noundef nonnull align 8 dereferenceable(80) %0)
  %5 = load ptr, ptr %3, align 8
  %6 = getelementptr inbounds i8, ptr %3, i64 8
  %7 = load ptr, ptr %6, align 8
  %.not12 = icmp eq ptr %5, %7
  br i1 %.not12, label %_ZSt8_DestroyIPSt10unique_ptrIN4LIEF3ELF15NoteGnuProperty8PropertyESt14default_deleteIS4_EES7_EvT_S9_RSaIT0_E.exit.i, label %.lr.ph

.lr.ph:                                           ; preds = %2, %14
  %.sroa.09.013 = phi ptr [ %15, %14 ], [ %5, %2 ]
  %8 = invoke noundef nonnull align 8 dereferenceable(8) ptr @_ZStlsISt11char_traitsIcEERSt13basic_ostreamIcT_ES5_PKc(ptr noundef nonnull align 8 dereferenceable(8) %1, ptr noundef nonnull @.str.1)
          to label %9 unwind label %16

9:                                                ; preds = %.lr.ph
  %10 = load ptr, ptr %.sroa.09.013, align 8
  %11 = load ptr, ptr %10, align 8
  %12 = load ptr, ptr %11, align 8
  invoke void %12(ptr noundef nonnull align 8 dereferenceable(12) %10, ptr noundef nonnull align 8 dereferenceable(8) %8)
          to label %_ZN4LIEF3ELFlsERSoRKNS0_15NoteGnuProperty8PropertyE.exit unwind label %16

_ZN4LIEF3ELFlsERSoRKNS0_15NoteGnuProperty8PropertyE.exit: ; preds = %9
  %13 = invoke noundef nonnull align 8 dereferenceable(8) ptr @_ZStlsISt11char_traitsIcEERSt13basic_ostreamIcT_ES5_c(ptr noundef nonnull align 8 dereferenceable(8) %8, i8 noundef signext 10)
          to label %14 unwind label %16

14:                                               ; preds = %_ZN4LIEF3ELFlsERSoRKNS0_15NoteGnuProperty8PropertyE.exit
  %15 = getelementptr inbounds i8, ptr %.sroa.09.013, i64 8
  %.not = icmp eq ptr %15, %7
  br i1 %.not, label %._crit_edge, label %.lr.ph

16:                                               ; preds = %9, %_ZN4LIEF3ELFlsERSoRKNS0_15NoteGnuProperty8PropertyE.exit, %.lr.ph
  %17 = landingpad { ptr, i32 }
          cleanup
  call void @_ZNSt6vectorISt10unique_ptrIN4LIEF3ELF15NoteGnuProperty8PropertyESt14default_deleteIS4_EESaIS7_EED2Ev(ptr noundef nonnull align 8 dereferenceable(24) %3) #19
  resume { ptr, i32 } %17

._crit_edge:                                      ; preds = %14
  %.pre = load ptr, ptr %3, align 8
  %.pre14 = load ptr, ptr %6, align 8
  %.not4.i.i.i.i = icmp eq ptr %.pre, %.pre14
  br i1 %.not4.i.i.i.i, label %_ZSt8_DestroyIPSt10unique_ptrIN4LIEF3ELF15NoteGnuProperty8PropertyESt14default_deleteIS4_EES7_EvT_S9_RSaIT0_E.exit.i, label %.lr.ph.i.i.i.i

.lr.ph.i.i.i.i:                                   ; preds = %._crit_edge, %_ZSt8_DestroyISt10unique_ptrIN4LIEF3ELF15NoteGnuProperty8PropertyESt14default_deleteIS4_EEEvPT_.exit.i.i.i.i
  %.05.i.i.i.i = phi ptr [ %22, %_ZSt8_DestroyISt10unique_ptrIN4LIEF3ELF15NoteGnuProperty8PropertyESt14default_deleteIS4_EEEvPT_.exit.i.i.i.i ], [ %.pre, %._crit_edge ]
  %18 = load ptr, ptr %.05.i.i.i.i, align 8
  %.not.i.i.i.i.i.i = icmp eq ptr %18, null
  br i1 %.not.i.i.i.i.i.i, label %_ZSt8_DestroyISt10unique_ptrIN4LIEF3ELF15NoteGnuProperty8PropertyESt14default_deleteIS4_EEEvPT_.exit.i.i.i.i, label %_ZNKSt14default_deleteIN4LIEF3ELF15NoteGnuProperty8PropertyEEclEPS3_.exit.i.i.i.i.i.i

_ZNKSt14default_deleteIN4LIEF3ELF15NoteGnuProperty8PropertyEEclEPS3_.exit.i.i.i.i.i.i: ; preds = %.lr.ph.i.i.i.i
  %19 = load ptr, ptr %18, align 8
  %20 = getelementptr inbounds i8, ptr %19, i64 16
  %21 = load ptr, ptr %20, align 8
  call void %21(ptr noundef nonnull align 8 dereferenceable(12) %18) #19
  br label %_ZSt8_DestroyISt10unique_ptrIN4LIEF3ELF15NoteGnuProperty8PropertyESt14default_deleteIS4_EEEvPT_.exit.i.i.i.i

_ZSt8_DestroyISt10unique_ptrIN4LIEF3ELF15NoteGnuProperty8PropertyESt14default_deleteIS4_EEEvPT_.exit.i.i.i.i: ; preds = %_ZNKSt14default_deleteIN4LIEF3ELF15NoteGnuProperty8PropertyEEclEPS3_.exit.i.i.i.i.i.i, %.lr.ph.i.i.i.i
  store ptr null, ptr %.05.i.i.i.i, align 8
  %22 = getelementptr inbounds i8, ptr %.05.i.i.i.i, i64 8
  %.not.i.i.i.i = icmp eq ptr %22, %.pre14
  br i1 %.not.i.i.i.i, label %_ZSt8_DestroyIPSt10unique_ptrIN4LIEF3ELF15NoteGnuProperty8PropertyESt14default_deleteIS4_EES7_EvT_S9_RSaIT0_E.exitthread-pre-split.i, label %.lr.ph.i.i.i.i, !llvm.loop !47

_ZSt8_DestroyIPSt10unique_ptrIN4LIEF3ELF15NoteGnuProperty8PropertyESt14default_deleteIS4_EES7_EvT_S9_RSaIT0_E.exitthread-pre-split.i: ; preds = %_ZSt8_DestroyISt10unique_ptrIN4LIEF3ELF15NoteGnuProperty8PropertyESt14default_deleteIS4_EEEvPT_.exit.i.i.i.i
  %.pr.i = load ptr, ptr %3, align 8
  br label %_ZSt8_DestroyIPSt10unique_ptrIN4LIEF3ELF15NoteGnuProperty8PropertyESt14default_deleteIS4_EES7_EvT_S9_RSaIT0_E.exit.i

_ZSt8_DestroyIPSt10unique_ptrIN4LIEF3ELF15NoteGnuProperty8PropertyESt14default_deleteIS4_EES7_EvT_S9_RSaIT0_E.exit.i: ; preds = %2, %_ZSt8_DestroyIPSt10unique_ptrIN4LIEF3ELF15NoteGnuProperty8PropertyESt14default_deleteIS4_EES7_EvT_S9_RSaIT0_E.exitthread-pre-split.i, %._crit_edge
  %23 = phi ptr [ %.pr.i, %_ZSt8_DestroyIPSt10unique_ptrIN4LIEF3ELF15NoteGnuProperty8PropertyESt14default_deleteIS4_EES7_EvT_S9_RSaIT0_E.exitthread-pre-split.i ], [ %.pre14, %._crit_edge ], [ %5, %2 ]
  %.not.i.i.i = icmp eq ptr %23, null
  br i1 %.not.i.i.i, label %_ZNSt6vectorISt10unique_ptrIN4LIEF3ELF15NoteGnuProperty8PropertyESt14default_deleteIS4_EESaIS7_EED2Ev.exit, label %24

24:                                               ; preds = %_ZSt8_DestroyIPSt10unique_ptrIN4LIEF3ELF15NoteGnuProperty8PropertyESt14default_deleteIS4_EES7_EvT_S9_RSaIT0_E.exit.i
  call void @_ZdlPv(ptr noundef nonnull %23) #20
  br label %_ZNSt6vectorISt10unique_ptrIN4LIEF3ELF15NoteGnuProperty8PropertyESt14default_deleteIS4_EESaIS7_EED2Ev.exit

_ZNSt6vectorISt10unique_ptrIN4LIEF3ELF15NoteGnuProperty8PropertyESt14default_deleteIS4_EESaIS7_EED2Ev.exit: ; preds = %_ZSt8_DestroyIPSt10unique_ptrIN4LIEF3ELF15NoteGnuProperty8PropertyESt14default_deleteIS4_EES7_EvT_S9_RSaIT0_E.exit.i, %24
  ret void
}